target datalayout = "e-m:e-p270:32:32-p271:32:32-p272:64:64-i64:64-i128:128-f80:128-n8:16:32:64-S128"
target triple = "x86_64-pc-linux-gnu"

%struct.auth_plugin_types_t = type { i32, ptr }

@.str.4 = private unnamed_addr constant [8 x i8] c"unknown\00", align 1

; Function Attrs: nounwind uwtable
define dso_local ptr @auth_get_plugin_name(i32 noundef %0) #0 {
  %2 = alloca ptr, align 8
  %3 = alloca i32, align 4
  %4 = alloca i32, align 4
  %5 = alloca i32, align 4
  store i32 %0, ptr %3, align 4
  call void @llvm.lifetime.start.p0(i64 4, ptr %4) #6
  store i32 0, ptr %4, align 4
  br label %6

6:                                                ; preds = %26, %1
  %7 = load i32, ptr %4, align 4
  %8 = sext i32 %7 to i64
  %9 = icmp ult i64 %8, 4
  br i1 %9, label %11, label %10

10:                                               ; preds = %6
  store i32 2, ptr %5, align 4
  br label %29

11:                                               ; preds = %6
  %12 = load i32, ptr %3, align 4
  %13 = load i32, ptr %4, align 4
  %14 = sext i32 %13 to i64
  %15 = getelementptr inbounds [4 x %struct.auth_plugin_types_t], ptr @auth_plugin_types, i64 0, i64 %14
  %16 = getelementptr inbounds nuw %struct.auth_plugin_types_t, ptr %15, i32 0, i32 0
  %17 = load i32, ptr %16, align 16
  %18 = icmp eq i32 %12, %17
  br i1 %18, label %19, label %25

19:                                               ; preds = %11
  %20 = load i32, ptr %4, align 4
  %21 = sext i32 %20 to i64
  %22 = getelementptr inbounds [4 x %struct.auth_plugin_types_t], ptr @auth_plugin_types, i64 0, i64 %21
  %23 = getelementptr inbounds nuw %struct.auth_plugin_types_t, ptr %22, i32 0, i32 1
  %24 = load ptr, ptr %23, align 8
  store ptr %24, ptr %2, align 8
  store i32 1, ptr %5, align 4
  br label %29

25:                                               ; preds = %11
  br label %26

26:                                               ; preds = %25
  %27 = load i32, ptr %4, align 4
  %28 = add nsw i32 %27, 1
  store i32 %28, ptr %4, align 4
  br label %6, !llvm.loop !8

29:                                               ; preds = %19, %10
  call void @llvm.lifetime.end.p0(i64 4, ptr %4) #6
  %30 = load i32, ptr %5, align 4
  switch i32 %30, label %34 [
    i32 2, label %31
    i32 1, label %32
  ]

31:                                               ; preds = %29
  store ptr @.str.4, ptr %2, align 8
  br label %32

32:                                               ; preds = %31, %29
  %33 = load ptr, ptr %2, align 8
  ret ptr %33

34:                                               ; preds = %29
  unreachable
}