; Function Attrs: nofree norecurse nosync nounwind memory(read, argmem: none, inaccessiblemem: none) uwtable
define dso_local ptr @auth_get_plugin_name(i32 noundef %0) local_unnamed_addr #0 {
  br label %3

2:                                                ; preds = %3
  %indvars.iv.next = add nuw nsw i64 %indvars.iv, 1
  %exitcond = icmp eq i64 %indvars.iv.next, 4
  br i1 %exitcond, label %.loopexit, label %3, !llvm.loop !8

3:                                                ; preds = %1, %2
  %indvars.iv = phi i64 [ 0, %1 ], [ %indvars.iv.next, %2 ]
  %4 = getelementptr inbounds nuw [4 x %struct.auth_plugin_types_t], ptr @auth_plugin_types, i64 0, i64 %indvars.iv
  %5 = load i32, ptr %4, align 16
  %6 = icmp eq i32 %0, %5
  br i1 %6, label %7, label %2

7:                                                ; preds = %3
  %8 = getelementptr inbounds nuw i8, ptr %4, i64 8
  %9 = load ptr, ptr %8, align 8
  br label %.loopexit

.loopexit:                                        ; preds = %2, %7
  %spec.select = phi ptr [ %9, %7 ], [ @.str.4, %2 ]
  ret ptr %spec.select
}